; Function Attrs: mustprogress nofree norecurse nosync nounwind willreturn memory(readwrite, inaccessiblemem: none) uwtable
define hidden void @_ZN9Assembler4shlqE8Registeri(ptr nocapture noundef nonnull readonly align 8 dereferenceable(40) %0, i32 %1, i32 noundef %2) local_unnamed_addr #8 align 2 {
  %4 = sext i32 %1 to i64
  %5 = getelementptr inbounds %"class.Register::RegisterImpl", ptr getelementptr inbounds (i8, ptr @all_RegisterImpls, i64 1), i64 %4
  %6 = ptrtoint ptr %5 to i64
  %7 = trunc i64 %6 to i32
  %8 = sub i32 %7, ptrtoint (ptr getelementptr inbounds (i8, ptr @all_RegisterImpls, i64 1) to i32)
  %9 = icmp sgt i32 %8, 15
  br i1 %9, label %10, label %25

10:                                               ; preds = %3
  %11 = and i32 %8, 16
  %12 = lshr i32 %8, 3
  %13 = and i32 %12, 1
  %.1.i.i.i = or disjoint i32 %13, %11
  %14 = getelementptr inbounds i8, ptr %0, i64 8
  %15 = load ptr, ptr %14, align 8
  %16 = getelementptr inbounds i8, ptr %15, i64 16
  %17 = load ptr, ptr %16, align 8
  %18 = getelementptr inbounds i8, ptr %17, i64 1
  store i8 -43, ptr %17, align 1
  store ptr %18, ptr %16, align 8
  %19 = load ptr, ptr %14, align 8
  %20 = trunc nuw nsw i32 %.1.i.i.i to i8
  %.0.i.i2.i.i.i = or disjoint i8 %20, 8
  %21 = getelementptr inbounds i8, ptr %19, i64 16
  %22 = load ptr, ptr %21, align 8
  %23 = getelementptr inbounds i8, ptr %22, i64 1
  store i8 %.0.i.i2.i.i.i, ptr %22, align 1
  store ptr %23, ptr %21, align 8
  %24 = and i32 %8, 7
  br label %_ZN9Assembler18prefixq_and_encodeEib.exit

25:                                               ; preds = %3
  %26 = icmp slt i32 %8, 8
  %27 = getelementptr inbounds i8, ptr %0, i64 8
  %28 = load ptr, ptr %27, align 8
  %29 = getelementptr inbounds i8, ptr %28, i64 16
  %30 = load ptr, ptr %29, align 8
  %31 = getelementptr inbounds i8, ptr %30, i64 1
  br i1 %26, label %32, label %33

32:                                               ; preds = %25
  store i8 72, ptr %30, align 1
  store ptr %31, ptr %29, align 8
  br label %_ZN9Assembler18prefixq_and_encodeEib.exit

33:                                               ; preds = %25
  store i8 73, ptr %30, align 1
  store ptr %31, ptr %29, align 8
  %34 = add nsw i32 %8, -8
  br label %_ZN9Assembler18prefixq_and_encodeEib.exit

_ZN9Assembler18prefixq_and_encodeEib.exit:        ; preds = %32, %33, %10
  %.0.i = phi i32 [ %24, %10 ], [ %8, %32 ], [ %34, %33 ]
  %35 = icmp eq i32 %2, 1
  %36 = getelementptr inbounds i8, ptr %0, i64 8
  %37 = load ptr, ptr %36, align 8
  %38 = trunc i32 %.0.i to i8
  %.0.i2.i = or i8 %38, -32
  br i1 %35, label %39, label %44

39:                                               ; preds = %_ZN9Assembler18prefixq_and_encodeEib.exit
  %40 = getelementptr inbounds i8, ptr %37, i64 16
  %41 = load ptr, ptr %40, align 8
  %42 = getelementptr inbounds i8, ptr %41, i64 1
  store i8 -47, ptr %41, align 1
  %43 = getelementptr inbounds i8, ptr %41, i64 2
  store i8 %.0.i2.i, ptr %42, align 1
  store ptr %43, ptr %40, align 8
  br label %50

44:                                               ; preds = %_ZN9Assembler18prefixq_and_encodeEib.exit
  %.0.i4.i = trunc i32 %2 to i8
  %45 = getelementptr inbounds i8, ptr %37, i64 16
  %46 = load ptr, ptr %45, align 8
  %47 = getelementptr inbounds i8, ptr %46, i64 1
  store i8 -63, ptr %46, align 1
  %48 = getelementptr inbounds i8, ptr %46, i64 2
  store i8 %.0.i2.i, ptr %47, align 1
  %49 = getelementptr inbounds i8, ptr %46, i64 3
  store i8 %.0.i4.i, ptr %48, align 1
  store ptr %49, ptr %45, align 8
  br label %50

50:                                               ; preds = %44, %39
  ret void
}